target datalayout = "e-m:e-p270:32:32-p271:32:32-p272:64:64-i64:64-i128:128-f80:128-n8:16:32:64-S128"
target triple = "x86_64-pc-linux-gnu"

%"struct.duckdb_libpgquery::pg_parser_state_str" = type { i32, i32, [8192 x i8], i64, i64, ptr, i64 }

@_ZN17duckdb_libpgqueryL15pg_parser_stateE = internal thread_local global %"struct.duckdb_libpgquery::pg_parser_state_str" zeroinitializer, align 8
@_ZTISt9bad_alloc = external constant ptr
@_ZTVSt9bad_alloc = available_externally unnamed_addr constant { [5 x ptr] } { [5 x ptr] [ptr null, ptr @_ZTISt9bad_alloc, ptr @_ZNSt9bad_allocD1Ev, ptr @_ZNSt9bad_allocD0Ev, ptr @_ZNKSt9bad_alloc4whatEv] }, align 8
@_ZTVSt9exception = available_externally unnamed_addr constant { [5 x ptr] } { [5 x ptr] [ptr null, ptr @_ZTISt9exception, ptr @_ZNSt9exceptionD1Ev, ptr @_ZNSt9exceptionD0Ev, ptr @_ZNKSt9exception4whatEv] }, align 8

; Function Attrs: mustprogress nounwind uwtable
define linkonce_odr void @_ZNSt9exceptionC2Ev(ptr noundef nonnull align 8 dereferenceable(8) %0) unnamed_addr #6 comdat align 2 {
  %2 = alloca ptr, align 8
  store ptr %0, ptr %2, align 8, !tbaa !35
  %3 = load ptr, ptr %2, align 8
  store ptr getelementptr inbounds inrange(-16, 24) ({ [5 x ptr] }, ptr @_ZTVSt9exception, i32 0, i32 0, i32 2), ptr %3, align 8, !tbaa !24
  ret void
}

; Function Attrs: mustprogress nounwind uwtable
define linkonce_odr void @_ZNSt9bad_allocC2Ev(ptr noundef nonnull align 8 dereferenceable(8) %0) unnamed_addr #6 comdat align 2 {
  %2 = alloca ptr, align 8
  store ptr %0, ptr %2, align 8, !tbaa !22
  %3 = load ptr, ptr %2, align 8
  call void @_ZNSt9exceptionC2Ev(ptr noundef nonnull align 8 dereferenceable(8) %3) #13
  store ptr getelementptr inbounds inrange(-16, 24) ({ [5 x ptr] }, ptr @_ZTVSt9bad_alloc, i32 0, i32 0, i32 2), ptr %3, align 8, !tbaa !24
  ret void
}

; Function Attrs: mustprogress uwtable
define hidden void @_ZN17duckdb_libpgquery14pg_parser_initEv() #0 {
  %1 = alloca ptr, align 8
  %2 = call align 8 ptr @llvm.threadlocal.address.p0(ptr align 8 @_ZN17duckdb_libpgqueryL15pg_parser_stateE)
  %3 = getelementptr inbounds nuw %"struct.duckdb_libpgquery::pg_parser_state_str", ptr %2, i32 0, i32 0
  store i32 0, ptr %3, align 8, !tbaa !20
  %4 = call align 8 ptr @llvm.threadlocal.address.p0(ptr align 8 @_ZN17duckdb_libpgqueryL15pg_parser_stateE)
  %5 = getelementptr inbounds nuw %"struct.duckdb_libpgquery::pg_parser_state_str", ptr %4, i32 0, i32 2
  %6 = getelementptr inbounds [8192 x i8], ptr %5, i64 0, i64 0
  store i8 0, ptr %6, align 8, !tbaa !21
  %7 = call align 8 ptr @llvm.threadlocal.address.p0(ptr align 8 @_ZN17duckdb_libpgqueryL15pg_parser_stateE)
  %8 = getelementptr inbounds nuw %"struct.duckdb_libpgquery::pg_parser_state_str", ptr %7, i32 0, i32 6
  store i64 4, ptr %8, align 8, !tbaa !18
  call void @llvm.lifetime.start.p0(i64 8, ptr %1) #13
  %9 = call align 8 ptr @llvm.threadlocal.address.p0(ptr align 8 @_ZN17duckdb_libpgqueryL15pg_parser_stateE)
  %10 = getelementptr inbounds nuw %"struct.duckdb_libpgquery::pg_parser_state_str", ptr %9, i32 0, i32 6
  %11 = load i64, ptr %10, align 8, !tbaa !18
  %12 = mul i64 8, %11
  %13 = call noalias ptr @malloc(i64 noundef %12) #14
  store ptr %13, ptr %1, align 8, !tbaa !19
  %14 = load ptr, ptr %1, align 8, !tbaa !19
  %15 = icmp ne ptr %14, null
  br i1 %15, label %18, label %16

16:                                               ; preds = %0
  %17 = call ptr @__cxa_allocate_exception(i64 8) #13
  call void @_ZNSt9bad_allocC2Ev(ptr noundef nonnull align 8 dereferenceable(8) %17) #13
  call void @__cxa_throw(ptr %17, ptr @_ZTISt9bad_alloc, ptr @_ZNSt9bad_allocD1Ev) #15
  unreachable

18:                                               ; preds = %0
  %19 = load ptr, ptr %1, align 8, !tbaa !19
  %20 = call align 8 ptr @llvm.threadlocal.address.p0(ptr align 8 @_ZN17duckdb_libpgqueryL15pg_parser_stateE)
  %21 = getelementptr inbounds nuw %"struct.duckdb_libpgquery::pg_parser_state_str", ptr %20, i32 0, i32 5
  store ptr %19, ptr %21, align 8, !tbaa !12
  %22 = call align 8 ptr @llvm.threadlocal.address.p0(ptr align 8 @_ZN17duckdb_libpgqueryL15pg_parser_stateE)
  %23 = getelementptr inbounds nuw %"struct.duckdb_libpgquery::pg_parser_state_str", ptr %22, i32 0, i32 5
  %24 = load ptr, ptr %23, align 8, !tbaa !12
  %25 = call align 8 ptr @llvm.threadlocal.address.p0(ptr align 8 @_ZN17duckdb_libpgqueryL15pg_parser_stateE)
  %26 = getelementptr inbounds nuw %"struct.duckdb_libpgquery::pg_parser_state_str", ptr %25, i32 0, i32 6
  %27 = load i64, ptr %26, align 8, !tbaa !18
  %28 = mul i64 8, %27
  call void @llvm.memset.p0.i64(ptr align 8 %24, i8 0, i64 %28, i1 false)
  %29 = call align 8 ptr @llvm.threadlocal.address.p0(ptr align 8 @_ZN17duckdb_libpgqueryL15pg_parser_stateE)
  %30 = getelementptr inbounds nuw %"struct.duckdb_libpgquery::pg_parser_state_str", ptr %29, i32 0, i32 4
  store i64 0, ptr %30, align 8, !tbaa !13
  %31 = call align 8 ptr @llvm.threadlocal.address.p0(ptr align 8 @_ZN17duckdb_libpgqueryL15pg_parser_stateE)
  call void @_ZN17duckdb_libpgqueryL12allocate_newEPNS_19pg_parser_state_strEm(ptr noundef %31, i64 noundef 1)
  call void @llvm.lifetime.end.p0(i64 8, ptr %1) #13
  ret void
}