; Function Attrs: mustprogress uwtable
define hidden void @_ZN17duckdb_libpgquery14pg_parser_initEv() local_unnamed_addr #0 {
  %1 = tail call align 8 ptr @llvm.threadlocal.address.p0(ptr align 8 @_ZN17duckdb_libpgqueryL15pg_parser_stateE)
  store i32 0, ptr %1, align 8, !tbaa !18
  %2 = getelementptr inbounds nuw i8, ptr %1, i64 8
  store i8 0, ptr %2, align 8, !tbaa !19
  %3 = getelementptr inbounds nuw i8, ptr %1, i64 8224
  store i64 4, ptr %3, align 8, !tbaa !15
  %calloc = tail call dereferenceable_or_null(32) ptr @calloc(i64 1, i64 32)
  %.not = icmp eq ptr %calloc, null
  br i1 %.not, label %4, label %6

4:                                                ; preds = %0
  %5 = tail call ptr @__cxa_allocate_exception(i64 8) #24
  store ptr getelementptr inbounds nuw inrange(-16, 24) (i8, ptr @_ZTVSt9bad_alloc, i64 16), ptr %5, align 8, !tbaa !16
  tail call void @__cxa_throw(ptr nonnull %5, ptr nonnull @_ZTISt9bad_alloc, ptr nonnull @_ZNSt9bad_allocD1Ev) #25
  unreachable

6:                                                ; preds = %0
  %7 = getelementptr inbounds nuw i8, ptr %1, i64 8216
  store ptr %calloc, ptr %7, align 8, !tbaa !11
  %8 = getelementptr inbounds nuw i8, ptr %1, i64 8208
  store i64 0, ptr %8, align 8, !tbaa !12
  tail call fastcc void @_ZN17duckdb_libpgqueryL12allocate_newEPNS_19pg_parser_state_strEm(ptr noundef %1, i64 noundef 1)
  ret void
}